; Function Attrs: mustprogress nofree norecurse nosync nounwind willreturn memory(read, inaccessiblemem: none) uwtable
define dso_local noundef ptr @_ZNK5clang12OffsetOfNode12getFieldNameEv(ptr nocapture noundef nonnull readonly align 8 dereferenceable(16) %0) local_unnamed_addr #0 align 2 {
  %2 = getelementptr inbounds nuw i8, ptr %0, i64 8
  %3 = load i64, ptr %2, align 8
  %4 = and i64 %3, 3
  %5 = icmp eq i64 %4, 1
  %6 = and i64 %3, -4
  %7 = inttoptr i64 %6 to ptr
  br i1 %5, label %8, label %15

8:                                                ; preds = %1
  %9 = getelementptr inbounds nuw i8, ptr %7, i64 40
  %10 = load i64, ptr %9, align 8
  %11 = and i64 %10, 7
  %12 = icmp eq i64 %11, 0
  %13 = and i64 %10, -8
  %14 = inttoptr i64 %13 to ptr
  %.0.i.i = select i1 %12, ptr %14, ptr null
  br label %15

15:                                               ; preds = %1, %8
  %.0 = phi ptr [ %.0.i.i, %8 ], [ %7, %1 ]
  ret ptr %.0
}